target datalayout = "e-m:e-p270:32:32-p271:32:32-p272:64:64-i64:64-i128:128-f80:128-n8:16:32:64-S128"
target triple = "x86_64-pc-linux-gnu"

%struct.OptionDef = type { ptr, i32, i32, %union.anon, ptr, ptr, %union.anon.0 }
%union.anon = type { ptr }
%union.anon.0 = type { ptr }
%struct.OptionGroup = type { ptr, ptr, ptr, i32, ptr, ptr, ptr, ptr }
%struct.OptionGroupDef = type { ptr, ptr, i32 }
%struct.Option = type { ptr, ptr, ptr }

@.str.15 = private unnamed_addr constant [36 x i8] c"Parsing a group of options: %s %s.\0A\00", align 1
@.str.16 = private unnamed_addr constant [167 x i8] c"Option %s (%s) cannot be applied to %s %s -- you are trying to apply an input option to an output file or vice versa. Move this option before the file it belongs to.\0A\00", align 1
@.str.17 = private unnamed_addr constant [43 x i8] c"Applying option %s (%s) with argument %s.\0A\00", align 1
@.str.18 = private unnamed_addr constant [41 x i8] c"Successfully parsed a group of options.\0A\00", align 1

; Function Attrs: nounwind uwtable
define i32 @parse_optgroup(ptr noundef %0, ptr noundef %1, ptr noundef %2) #0 {
  %4 = alloca i32, align 4
  %5 = alloca ptr, align 8
  %6 = alloca ptr, align 8
  %7 = alloca ptr, align 8
  %8 = alloca i32, align 4
  %9 = alloca i32, align 4
  %10 = alloca ptr, align 8
  %11 = alloca i32, align 4
  store ptr %0, ptr %5, align 8, !tbaa !4
  store ptr %1, ptr %6, align 8, !tbaa !65
  store ptr %2, ptr %7, align 8, !tbaa !21
  call void @llvm.lifetime.start.p0(i64 4, ptr %8) #11
  call void @llvm.lifetime.start.p0(i64 4, ptr %9) #11
  %12 = load ptr, ptr %6, align 8, !tbaa !65
  %13 = getelementptr inbounds nuw %struct.OptionGroup, ptr %12, i32 0, i32 0
  %14 = load ptr, ptr %13, align 8, !tbaa !67
  %15 = getelementptr inbounds nuw %struct.OptionGroupDef, ptr %14, i32 0, i32 0
  %16 = load ptr, ptr %15, align 8, !tbaa !72
  %17 = load ptr, ptr %6, align 8, !tbaa !65
  %18 = getelementptr inbounds nuw %struct.OptionGroup, ptr %17, i32 0, i32 1
  %19 = load ptr, ptr %18, align 8, !tbaa !74
  call void (ptr, i32, ptr, ...) @av_log(ptr noundef null, i32 noundef 48, ptr noundef @.str.15, ptr noundef %16, ptr noundef %19)
  store i32 0, ptr %8, align 4, !tbaa !8
  br label %20

20:                                               ; preds = %101, %3
  %21 = load i32, ptr %8, align 4, !tbaa !8
  %22 = load ptr, ptr %6, align 8, !tbaa !65
  %23 = getelementptr inbounds nuw %struct.OptionGroup, ptr %22, i32 0, i32 3
  %24 = load i32, ptr %23, align 8, !tbaa !75
  %25 = icmp slt i32 %21, %24
  br i1 %25, label %26, label %104

26:                                               ; preds = %20
  call void @llvm.lifetime.start.p0(i64 8, ptr %10) #11
  %27 = load ptr, ptr %6, align 8, !tbaa !65
  %28 = getelementptr inbounds nuw %struct.OptionGroup, ptr %27, i32 0, i32 2
  %29 = load ptr, ptr %28, align 8, !tbaa !76
  %30 = load i32, ptr %8, align 4, !tbaa !8
  %31 = sext i32 %30 to i64
  %32 = getelementptr inbounds %struct.Option, ptr %29, i64 %31
  store ptr %32, ptr %10, align 8, !tbaa !77
  %33 = load ptr, ptr %6, align 8, !tbaa !65
  %34 = getelementptr inbounds nuw %struct.OptionGroup, ptr %33, i32 0, i32 0
  %35 = load ptr, ptr %34, align 8, !tbaa !67
  %36 = getelementptr inbounds nuw %struct.OptionGroupDef, ptr %35, i32 0, i32 2
  %37 = load i32, ptr %36, align 8, !tbaa !78
  %38 = icmp ne i32 %37, 0
  br i1 %38, label %39, label %69

39:                                               ; preds = %26
  %40 = load ptr, ptr %6, align 8, !tbaa !65
  %41 = getelementptr inbounds nuw %struct.OptionGroup, ptr %40, i32 0, i32 0
  %42 = load ptr, ptr %41, align 8, !tbaa !67
  %43 = getelementptr inbounds nuw %struct.OptionGroupDef, ptr %42, i32 0, i32 2
  %44 = load i32, ptr %43, align 8, !tbaa !78
  %45 = load ptr, ptr %10, align 8, !tbaa !77
  %46 = getelementptr inbounds nuw %struct.Option, ptr %45, i32 0, i32 0
  %47 = load ptr, ptr %46, align 8, !tbaa !79
  %48 = getelementptr inbounds nuw %struct.OptionDef, ptr %47, i32 0, i32 2
  %49 = load i32, ptr %48, align 4, !tbaa !25
  %50 = and i32 %44, %49
  %51 = icmp ne i32 %50, 0
  br i1 %51, label %69, label %52

52:                                               ; preds = %39
  %53 = load ptr, ptr %10, align 8, !tbaa !77
  %54 = getelementptr inbounds nuw %struct.Option, ptr %53, i32 0, i32 1
  %55 = load ptr, ptr %54, align 8, !tbaa !81
  %56 = load ptr, ptr %10, align 8, !tbaa !77
  %57 = getelementptr inbounds nuw %struct.Option, ptr %56, i32 0, i32 0
  %58 = load ptr, ptr %57, align 8, !tbaa !79
  %59 = getelementptr inbounds nuw %struct.OptionDef, ptr %58, i32 0, i32 4
  %60 = load ptr, ptr %59, align 8, !tbaa !27
  %61 = load ptr, ptr %6, align 8, !tbaa !65
  %62 = getelementptr inbounds nuw %struct.OptionGroup, ptr %61, i32 0, i32 0
  %63 = load ptr, ptr %62, align 8, !tbaa !67
  %64 = getelementptr inbounds nuw %struct.OptionGroupDef, ptr %63, i32 0, i32 0
  %65 = load ptr, ptr %64, align 8, !tbaa !72
  %66 = load ptr, ptr %6, align 8, !tbaa !65
  %67 = getelementptr inbounds nuw %struct.OptionGroup, ptr %66, i32 0, i32 1
  %68 = load ptr, ptr %67, align 8, !tbaa !74
  call void (ptr, i32, ptr, ...) @av_log(ptr noundef null, i32 noundef 16, ptr noundef @.str.16, ptr noundef %55, ptr noundef %60, ptr noundef %65, ptr noundef %68)
  store i32 -22, ptr %4, align 4
  store i32 1, ptr %11, align 4
  br label %98

69:                                               ; preds = %39, %26
  %70 = load ptr, ptr %10, align 8, !tbaa !77
  %71 = getelementptr inbounds nuw %struct.Option, ptr %70, i32 0, i32 1
  %72 = load ptr, ptr %71, align 8, !tbaa !81
  %73 = load ptr, ptr %10, align 8, !tbaa !77
  %74 = getelementptr inbounds nuw %struct.Option, ptr %73, i32 0, i32 0
  %75 = load ptr, ptr %74, align 8, !tbaa !79
  %76 = getelementptr inbounds nuw %struct.OptionDef, ptr %75, i32 0, i32 4
  %77 = load ptr, ptr %76, align 8, !tbaa !27
  %78 = load ptr, ptr %10, align 8, !tbaa !77
  %79 = getelementptr inbounds nuw %struct.Option, ptr %78, i32 0, i32 2
  %80 = load ptr, ptr %79, align 8, !tbaa !82
  call void (ptr, i32, ptr, ...) @av_log(ptr noundef null, i32 noundef 48, ptr noundef @.str.17, ptr noundef %72, ptr noundef %77, ptr noundef %80)
  %81 = load ptr, ptr %5, align 8, !tbaa !4
  %82 = load ptr, ptr %10, align 8, !tbaa !77
  %83 = getelementptr inbounds nuw %struct.Option, ptr %82, i32 0, i32 0
  %84 = load ptr, ptr %83, align 8, !tbaa !79
  %85 = load ptr, ptr %10, align 8, !tbaa !77
  %86 = getelementptr inbounds nuw %struct.Option, ptr %85, i32 0, i32 1
  %87 = load ptr, ptr %86, align 8, !tbaa !81
  %88 = load ptr, ptr %10, align 8, !tbaa !77
  %89 = getelementptr inbounds nuw %struct.Option, ptr %88, i32 0, i32 2
  %90 = load ptr, ptr %89, align 8, !tbaa !82
  %91 = load ptr, ptr %7, align 8, !tbaa !21
  %92 = call i32 @write_option(ptr noundef %81, ptr noundef %84, ptr noundef %87, ptr noundef %90, ptr noundef %91)
  store i32 %92, ptr %9, align 4, !tbaa !8
  %93 = load i32, ptr %9, align 4, !tbaa !8
  %94 = icmp slt i32 %93, 0
  br i1 %94, label %95, label %97

95:                                               ; preds = %69
  %96 = load i32, ptr %9, align 4, !tbaa !8
  store i32 %96, ptr %4, align 4
  store i32 1, ptr %11, align 4
  br label %98

97:                                               ; preds = %69
  store i32 0, ptr %11, align 4
  br label %98

98:                                               ; preds = %97, %95, %52
  call void @llvm.lifetime.end.p0(i64 8, ptr %10) #11
  %99 = load i32, ptr %11, align 4
  switch i32 %99, label %105 [
    i32 0, label %100
  ]

100:                                              ; preds = %98
  br label %101

101:                                              ; preds = %100
  %102 = load i32, ptr %8, align 4, !tbaa !8
  %103 = add nsw i32 %102, 1
  store i32 %103, ptr %8, align 4, !tbaa !8
  br label %20, !llvm.loop !83

104:                                              ; preds = %20
  call void (ptr, i32, ptr, ...) @av_log(ptr noundef null, i32 noundef 48, ptr noundef @.str.18)
  store i32 0, ptr %4, align 4
  store i32 1, ptr %11, align 4
  br label %105

105:                                              ; preds = %104, %98
  call void @llvm.lifetime.end.p0(i64 4, ptr %9) #11
  call void @llvm.lifetime.end.p0(i64 4, ptr %8) #11
  %106 = load i32, ptr %4, align 4
  ret i32 %106
}