; Function Attrs: nounwind uwtable
define range(i32 -2147483648, 1) i32 @parse_optgroup(ptr noundef %0, ptr noundef readonly captures(none) %1, ptr noundef %2) local_unnamed_addr #0 {
  %4 = load ptr, ptr %1, align 8, !tbaa !49
  %5 = load ptr, ptr %4, align 8, !tbaa !54
  %6 = getelementptr inbounds nuw i8, ptr %1, i64 8
  %7 = load ptr, ptr %6, align 8, !tbaa !56
  tail call void (ptr, i32, ptr, ...) @av_log(ptr noundef null, i32 noundef 48, ptr noundef nonnull @.str.15, ptr noundef %5, ptr noundef %7) #15
  %8 = getelementptr inbounds nuw i8, ptr %1, i64 24
  %9 = load i32, ptr %8, align 8, !tbaa !57
  %10 = icmp sgt i32 %9, 0
  br i1 %10, label %.lr.ph, label %._crit_edge

.lr.ph:                                           ; preds = %3
  %11 = getelementptr inbounds nuw i8, ptr %1, i64 16
  br label %16

12:                                               ; preds = %32
  %indvars.iv.next = add nuw nsw i64 %indvars.iv, 1
  %13 = load i32, ptr %8, align 8, !tbaa !57
  %14 = sext i32 %13 to i64
  %15 = icmp slt i64 %indvars.iv.next, %14
  br i1 %15, label %16, label %._crit_edge, !llvm.loop !58

16:                                               ; preds = %.lr.ph, %12
  %indvars.iv = phi i64 [ 0, %.lr.ph ], [ %indvars.iv.next, %12 ]
  %17 = load ptr, ptr %11, align 8, !tbaa !59
  %18 = getelementptr inbounds nuw %struct.Option, ptr %17, i64 %indvars.iv
  %19 = load ptr, ptr %1, align 8, !tbaa !49
  %20 = getelementptr inbounds nuw i8, ptr %19, i64 16
  %21 = load i32, ptr %20, align 8, !tbaa !60
  %.not = icmp eq i32 %21, 0
  %.pre = load ptr, ptr %18, align 8, !tbaa !61
  br i1 %.not, label %32, label %22

22:                                               ; preds = %16
  %23 = getelementptr inbounds nuw i8, ptr %.pre, i64 12
  %24 = load i32, ptr %23, align 4, !tbaa !17
  %25 = and i32 %24, %21
  %.not29 = icmp eq i32 %25, 0
  br i1 %.not29, label %.thread, label %32

.thread:                                          ; preds = %22
  %26 = getelementptr inbounds nuw i8, ptr %18, i64 8
  %27 = load ptr, ptr %26, align 8, !tbaa !63
  %28 = getelementptr inbounds nuw i8, ptr %.pre, i64 24
  %29 = load ptr, ptr %28, align 8, !tbaa !19
  %30 = load ptr, ptr %19, align 8, !tbaa !54
  %31 = load ptr, ptr %6, align 8, !tbaa !56
  tail call void (ptr, i32, ptr, ...) @av_log(ptr noundef null, i32 noundef 16, ptr noundef nonnull @.str.16, ptr noundef %27, ptr noundef %29, ptr noundef %30, ptr noundef %31) #15
  br label %.loopexit

32:                                               ; preds = %16, %22
  %33 = getelementptr inbounds nuw i8, ptr %18, i64 8
  %34 = load ptr, ptr %33, align 8, !tbaa !63
  %35 = getelementptr inbounds nuw i8, ptr %.pre, i64 24
  %36 = load ptr, ptr %35, align 8, !tbaa !19
  %37 = getelementptr inbounds nuw i8, ptr %18, i64 16
  %38 = load ptr, ptr %37, align 8, !tbaa !64
  tail call void (ptr, i32, ptr, ...) @av_log(ptr noundef null, i32 noundef 48, ptr noundef nonnull @.str.17, ptr noundef %34, ptr noundef %36, ptr noundef %38) #15
  %39 = load ptr, ptr %18, align 8, !tbaa !61
  %40 = load ptr, ptr %33, align 8, !tbaa !63
  %41 = load ptr, ptr %37, align 8, !tbaa !64
  %42 = tail call fastcc i32 @write_option(ptr noundef %0, ptr noundef %39, ptr noundef %40, ptr noundef %41, ptr noundef %2)
  %43 = icmp sgt i32 %42, -1
  br i1 %43, label %12, label %.loopexit

._crit_edge:                                      ; preds = %12, %3
  tail call void (ptr, i32, ptr, ...) @av_log(ptr noundef null, i32 noundef 48, ptr noundef nonnull @.str.18) #15
  br label %.loopexit

.loopexit:                                        ; preds = %32, %.thread, %._crit_edge
  %.2 = phi i32 [ 0, %._crit_edge ], [ -22, %.thread ], [ %42, %32 ]
  ret i32 %.2
}